target datalayout = "e-m:e-p270:32:32-p271:32:32-p272:64:64-i64:64-i128:128-f80:128-n8:16:32:64-S128"
target triple = "x86_64-pc-linux-gnu"

@.str.3 = private unnamed_addr constant [18 x i8] c"%Y:%m:%d %H:%M:%S\00", align 1
@.str.6 = private unnamed_addr constant [9 x i8] c"%s%s%03d\00", align 1
@.str.7 = private unnamed_addr constant [2 x i8] c".\00", align 1

; Function Attrs: nounwind uwtable
define internal ptr @_datetime_append_msec(ptr noundef %0, ptr noundef %1) #0 {
  %3 = alloca ptr, align 8
  %4 = alloca ptr, align 8
  store ptr %0, ptr %3, align 8, !tbaa !60
  store ptr %1, ptr %4, align 8, !tbaa !51
  %5 = load ptr, ptr %3, align 8, !tbaa !60
  %6 = load ptr, ptr %4, align 8, !tbaa !51
  %7 = call i32 @g_date_time_get_microsecond(ptr noundef %6)
  %8 = sitofp i32 %7 to double
  %9 = fmul reassoc nsz arcp contract afn double %8, 1.000000e-03
  %10 = fptosi double %9 to i32
  %11 = call noalias ptr (ptr, ...) @g_strdup_printf(ptr noundef @.str.6, ptr noundef %5, ptr noundef @.str.7, i32 noundef %10)
  ret ptr %11
}

; Function Attrs: nounwind uwtable
define i32 @dt_datetime_gdatetime_to_exif(ptr noundef %0, i64 noundef %1, ptr noundef %2) #0 {
  %4 = alloca i32, align 4
  %5 = alloca ptr, align 8
  %6 = alloca i64, align 8
  %7 = alloca ptr, align 8
  %8 = alloca ptr, align 8
  %9 = alloca ptr, align 8
  %10 = alloca i32, align 4
  store ptr %0, ptr %5, align 8, !tbaa !60
  store i64 %1, ptr %6, align 8, !tbaa !67
  store ptr %2, ptr %7, align 8, !tbaa !51
  %11 = load ptr, ptr %5, align 8, !tbaa !60
  %12 = icmp ne ptr %11, null
  br i1 %12, label %13, label %19

13:                                               ; preds = %3
  %14 = load i64, ptr %6, align 8, !tbaa !67
  %15 = icmp ne i64 %14, 0
  br i1 %15, label %16, label %19

16:                                               ; preds = %13
  %17 = load ptr, ptr %7, align 8, !tbaa !51
  %18 = icmp ne ptr %17, null
  br i1 %18, label %20, label %19

19:                                               ; preds = %16, %13, %3
  store i32 0, ptr %4, align 4
  br label %44

20:                                               ; preds = %16
  %21 = load ptr, ptr %5, align 8, !tbaa !60
  %22 = getelementptr inbounds i8, ptr %21, i64 0
  store i8 0, ptr %22, align 1, !tbaa !61
  call void @llvm.lifetime.start.p0(i64 8, ptr %8) #7
  %23 = load ptr, ptr %7, align 8, !tbaa !51
  %24 = call noalias ptr @g_date_time_format(ptr noundef %23, ptr noundef @.str.3)
  store ptr %24, ptr %8, align 8, !tbaa !60
  %25 = load ptr, ptr %8, align 8, !tbaa !60
  %26 = icmp ne ptr %25, null
  br i1 %26, label %27, label %42

27:                                               ; preds = %20
  %28 = load i64, ptr %6, align 8, !tbaa !67
  %29 = icmp eq i64 %28, 24
  br i1 %29, label %30, label %36

30:                                               ; preds = %27
  call void @llvm.lifetime.start.p0(i64 8, ptr %9) #7
  %31 = load ptr, ptr %8, align 8, !tbaa !60
  %32 = load ptr, ptr %7, align 8, !tbaa !51
  %33 = call ptr @_datetime_append_msec(ptr noundef %31, ptr noundef %32)
  store ptr %33, ptr %9, align 8, !tbaa !60
  %34 = load ptr, ptr %8, align 8, !tbaa !60
  call void @g_free(ptr noundef %34)
  %35 = load ptr, ptr %9, align 8, !tbaa !60
  store ptr %35, ptr %8, align 8, !tbaa !60
  call void @llvm.lifetime.end.p0(i64 8, ptr %9) #7
  br label %36

36:                                               ; preds = %30, %27
  %37 = load ptr, ptr %5, align 8, !tbaa !60
  %38 = load ptr, ptr %8, align 8, !tbaa !60
  %39 = load i64, ptr %6, align 8, !tbaa !67
  %40 = call i64 @g_strlcpy(ptr noundef %37, ptr noundef %38, i64 noundef %39)
  %41 = load ptr, ptr %8, align 8, !tbaa !60
  call void @g_free(ptr noundef %41)
  store i32 1, ptr %4, align 4
  store i32 1, ptr %10, align 4
  br label %43

42:                                               ; preds = %20
  store i32 0, ptr %4, align 4
  store i32 1, ptr %10, align 4
  br label %43

43:                                               ; preds = %42, %36
  call void @llvm.lifetime.end.p0(i64 8, ptr %8) #7
  br label %44

44:                                               ; preds = %43, %19
  %45 = load i32, ptr %4, align 4
  ret i32 %45
}

; Function Attrs: nounwind uwtable
define void @dt_datetime_now_to_exif(ptr noundef %0) #0 {
  %2 = alloca ptr, align 8
  %3 = alloca ptr, align 8
  store ptr %0, ptr %2, align 8, !tbaa !60
  %4 = load ptr, ptr %2, align 8, !tbaa !60
  %5 = icmp ne ptr %4, null
  br i1 %5, label %7, label %6

6:                                                ; preds = %1
  br label %19

7:                                                ; preds = %1
  %8 = load ptr, ptr %2, align 8, !tbaa !60
  %9 = getelementptr inbounds i8, ptr %8, i64 0
  store i8 0, ptr %9, align 1, !tbaa !61
  call void @llvm.lifetime.start.p0(i64 8, ptr %3) #7
  %10 = call ptr @g_date_time_new_now_local()
  store ptr %10, ptr %3, align 8, !tbaa !51
  %11 = load ptr, ptr %3, align 8, !tbaa !51
  %12 = icmp ne ptr %11, null
  br i1 %12, label %13, label %18

13:                                               ; preds = %7
  %14 = load ptr, ptr %2, align 8, !tbaa !60
  %15 = load ptr, ptr %3, align 8, !tbaa !51
  %16 = call i32 @dt_datetime_gdatetime_to_exif(ptr noundef %14, i64 noundef 20, ptr noundef %15)
  %17 = load ptr, ptr %3, align 8, !tbaa !51
  call void @g_date_time_unref(ptr noundef %17)
  br label %18

18:                                               ; preds = %13, %7
  call void @llvm.lifetime.end.p0(i64 8, ptr %3) #7
  br label %19

19:                                               ; preds = %18, %6
  ret void
}