; Function Attrs: nounwind uwtable
define void @dt_datetime_now_to_exif(ptr noundef %0) local_unnamed_addr #0 {
  %.not = icmp eq ptr %0, null
  br i1 %.not, label %8, label %2

2:                                                ; preds = %1
  store i8 0, ptr %0, align 1, !tbaa !57
  %3 = tail call ptr @g_date_time_new_now_local() #7
  %.not7 = icmp eq ptr %3, null
  br i1 %.not7, label %8, label %4

4:                                                ; preds = %2
  store i8 0, ptr %0, align 1, !tbaa !57
  %5 = tail call noalias ptr @g_date_time_format(ptr noundef nonnull %3, ptr noundef nonnull @.str.3) #7
  %.not.i = icmp eq ptr %5, null
  br i1 %.not.i, label %dt_datetime_gdatetime_to_exif.exit, label %6

6:                                                ; preds = %4
  %7 = tail call i64 @g_strlcpy(ptr noundef nonnull %0, ptr noundef nonnull %5, i64 noundef 20) #7
  tail call void @g_free(ptr noundef nonnull %5) #7
  br label %dt_datetime_gdatetime_to_exif.exit

dt_datetime_gdatetime_to_exif.exit:               ; preds = %4, %6
  tail call void @g_date_time_unref(ptr noundef nonnull %3) #7
  br label %8

8:                                                ; preds = %2, %dt_datetime_gdatetime_to_exif.exit, %1
  ret void
}